; Function Attrs: mustprogress uwtable
define dso_local void @_ZN4base5Value15CreateNullValueEv(ptr noalias nocapture writeonly sret(%"class.std::unique_ptr") align 8 %agg.result) local_unnamed_addr #3 align 2 personality ptr @__gxx_personality_v0 {
entry:
  %call = tail call noalias noundef nonnull dereferenceable(16) ptr @_Znwm(i64 noundef 16) #25
  store ptr getelementptr inbounds ({ [17 x ptr] }, ptr @_ZTVN4base5ValueE, i64 0, i32 0, i64 2), ptr %call, align 8
  %type_.i = getelementptr inbounds i8, ptr %call, i64 8
  store i32 0, ptr %type_.i, align 8
  store ptr %call, ptr %agg.result, align 8, !alias.scope !5
  ret void
}